(lp0
S'poi'
p1
aS'total_payments'
p2
aS'total_stock_value'
p3
aS'from_poi_to_this_person'
p4
aS'shared_receipt_with_poi'
p5
aS'expenses'
p6
aS'deferred_income'
p7
aS'long_term_incentive'
p8
aS'other'
p9
aS'bonus'
p10
aS'restricted_stock'
p11
aS'salary'
p12
aS'exercised_stock_options'
p13
aS'to_poi_ratio'
p14
aS'from_poi_ratio'
p15
aS'stock_ratio'
p16
a.